(lp1
(lp2
I8
aI0
aI0
aI2
aa(lp3
I16
aI0
aI0
aI19
aa(lp4
I5
aI0
aI0
aI0
aa(lp5
I6
aI0
aI0
aI5
aa(lp6
I9
aI0
aI0
aI14
aa(lp7
I11
aI0
aI0
aI9
aa(lp8
I6
aI0
aI0
aI0
aa(lp9
I14
aI0
aI0
aI12
aa(lp10
I9
aI0
aI0
aI0
aa(lp11
I6
aI0
aI0
aI2
aa(lp12
I10
aI0
aI0
aI3
aa(lp13
I5
aI0
aI0
aI0
aa(lp14
I11
aI0
aI0
aI14
aa(lp15
I10
aI0
aI0
aI6
aa(lp16
I10
aI0
aI0
aI5
aa(lp17
I8
aI0
aI0
aI2
aa(lp18
I4
aI0
aI0
aI0
aa(lp19
I12
aI0
aI0
aI4
aa(lp20
I12
aI0
aI0
aI4
aa(lp21
I8
aI0
aI0
aI4
aa(lp22
I12
aI0
aI0
aI8
aa(lp23
I16
aI0
aI0
aI26
aa(lp24
I6
aI0
aI0
aI0
aa(lp25
I13
aI0
aI0
aI8
aa(lp26
I11
aI0
aI0
aI12
aa(lp27
I12
aI0
aI0
aI16
aa(lp28
I13
aI0
aI0
aI8
aa(lp29
I13
aI0
aI0
aI10
aa(lp30
I10
aI0
aI0
aI8
aa(lp31
I17
aI0
aI0
aI9
aa(lp32
I5
aI0
aI0
aI2
aa(lp33
I6
aI0
aI0
aI0
aa(lp34
I11
aI0
aI0
aI10
aa(lp35
I12
aI0
aI0
aI16
aa(lp36
I13
aI0
aI0
aI10
aa(lp37
I12
aI0
aI0
aI2
aa(lp38
I8
aI0
aI0
aI2
aa(lp39
I18
aI0
aI0
aI7
aa(lp40
I9
aI0
aI0
aI6
aa(lp41
I11
aI0
aI0
aI12
aa(lp42
I7
aI0
aI0
aI2
aa(lp43
I12
aI0
aI0
aI12
aa(lp44
I18
aI0
aI0
aI6
aa(lp45
I11
aI0
aI0
aI2
aa(lp46
I11
aI0
aI0
aI6
aa(lp47
I10
aI0
aI0
aI4
aa(lp48
I9
aI0
aI0
aI4
aa(lp49
I6
aI0
aI0
aI0
aa(lp50
I11
aI0
aI0
aI21
aa(lp51
I8
aI0
aI0
aI4
aa(lp52
I8
aI0
aI0
aI6
aa(lp53
I13
aI0
aI0
aI7
aa(lp54
I9
aI0
aI0
aI8
aa(lp55
I9
aI0
aI0
aI7
aa(lp56
I5
aI0
aI0
aI2
aa(lp57
I8
aI0
aI0
aI14
aa(lp58
I25
aI0
aI0
aI10
aa(lp59
I13
aI0
aI0
aI14
aa(lp60
I8
aI0
aI0
aI12
aa(lp61
I13
aI0
aI0
aI17
aa(lp62
I9
aI0
aI0
aI0
aa(lp63
I8
aI0
aI0
aI5
aa(lp64
I10
aI0
aI0
aI6
aa(lp65
I10
aI0
aI0
aI6
aa(lp66
I9
aI0
aI0
aI2
aa(lp67
I5
aI0
aI0
aI4
aa(lp68
I6
aI0
aI0
aI0
aa(lp69
I11
aI0
aI0
aI6
aa(lp70
I6
aI0
aI0
aI0
aa(lp71
I14
aI0
aI0
aI4
aa(lp72
I8
aI0
aI0
aI2
aa(lp73
I10
aI0
aI0
aI2
aa(lp74
I11
aI0
aI0
aI0
aa(lp75
I6
aI0
aI0
aI4
aa(lp76
I15
aI0
aI0
aI13
aa(lp77
I14
aI0
aI0
aI16
aa(lp78
I10
aI0
aI0
aI6
aa(lp79
I16
aI0
aI0
aI12
aa(lp80
I17
aI0
aI0
aI12
aa(lp81
I7
aI0
aI0
aI6
aa(lp82
I8
aI0
aI0
aI2
aa(lp83
I11
aI0
aI0
aI8
aa(lp84
I7
aI0
aI0
aI2
aa(lp85
I8
aI0
aI0
aI12
aa(lp86
I8
aI0
aI0
aI20
aa(lp87
I4
aI0
aI0
aI0
aa(lp88
I10
aI0
aI0
aI3
aa(lp89
I9
aI0
aI0
aI6
aa(lp90
I14
aI0
aI0
aI4
aa(lp91
I6
aI0
aI0
aI2
aa(lp92
I8
aI0
aI0
aI12
aa(lp93
I10
aI0
aI0
aI22
aa(lp94
I3
aI0
aI0
aI0
aa(lp95
I16
aI0
aI0
aI33
aa(lp96
I14
aI0
aI0
aI5
aa(lp97
I10
aI0
aI0
aI16
aa(lp98
I9
aI0
aI0
aI10
aa(lp99
I6
aI0
aI0
aI2
aa(lp100
I9
aI0
aI0
aI16
aa(lp101
I9
aI0
aI0
aI14
aa(lp102
I10
aI0
aI0
aI16
aa(lp103
I14
aI0
aI0
aI7
aa(lp104
I11
aI0
aI0
aI0
aa(lp105
I8
aI0
aI0
aI6
aa(lp106
I8
aI0
aI0
aI0
aa(lp107
I10
aI0
aI0
aI4
aa(lp108
I9
aI0
aI0
aI10
aa(lp109
I8
aI0
aI0
aI2
aa(lp110
I6
aI0
aI0
aI4
aa(lp111
I15
aI0
aI0
aI15
aa(lp112
I7
aI0
aI0
aI2
aa(lp113
I10
aI0
aI0
aI0
aa(lp114
I15
aI0
aI0
aI14
aa(lp115
I7
aI0
aI0
aI8
aa(lp116
I14
aI0
aI0
aI2
aa(lp117
I14
aI0
aI0
aI6
aa(lp118
I6
aI0
aI0
aI2
aa(lp119
I10
aI0
aI0
aI2
aa(lp120
I9
aI0
aI0
aI5
aa(lp121
I8
aI0
aI0
aI2
aa(lp122
I8
aI0
aI0
aI3
aa(lp123
I10
aI0
aI0
aI5
aa(lp124
I5
aI0
aI0
aI0
aa(lp125
I11
aI0
aI0
aI9
aa(lp126
I16
aI0
aI0
aI37
aa(lp127
I14
aI0
aI0
aI12
aa(lp128
I9
aI0
aI0
aI10
aa(lp129
I8
aI0
aI0
aI10
aa(lp130
I9
aI0
aI0
aI2
aa(lp131
I16
aI0
aI0
aI13
aa(lp132
I12
aI0
aI0
aI10
aa(lp133
I13
aI0
aI0
aI3
aa(lp134
I12
aI0
aI0
aI2
aa(lp135
I11
aI0
aI0
aI6
aa(lp136
I12
aI0
aI0
aI8
aa(lp137
I8
aI0
aI0
aI8
aa(lp138
I11
aI0
aI0
aI3
aa(lp139
I7
aI0
aI0
aI1
aa(lp140
I9
aI0
aI0
aI4
aa(lp141
I15
aI0
aI0
aI4
aa(lp142
I8
aI0
aI0
aI1
aa(lp143
I9
aI0
aI0
aI2
aa(lp144
I7
aI0
aI0
aI8
aa(lp145
I10
aI0
aI0
aI2
aa(lp146
I10
aI0
aI0
aI6
aa(lp147
I12
aI0
aI0
aI10
aa(lp148
I6
aI0
aI0
aI0
aa(lp149
I6
aI0
aI0
aI0
aa(lp150
I14
aI0
aI0
aI16
aa(lp151
I11
aI0
aI0
aI8
aa(lp152
I8
aI0
aI0
aI6
aa(lp153
I5
aI0
aI0
aI6
aa(lp154
I12
aI0
aI0
aI6
aa(lp155
I5
aI0
aI0
aI0
aa(lp156
I13
aI0
aI0
aI19
aa(lp157
I7
aI0
aI0
aI2
aa(lp158
I15
aI0
aI0
aI0
aa(lp159
I7
aI0
aI0
aI2
aa(lp160
I9
aI0
aI0
aI0
aa(lp161
I17
aI0
aI0
aI47
aa(lp162
I14
aI0
aI0
aI14
aa(lp163
I9
aI0
aI0
aI5
aa(lp164
I7
aI0
aI0
aI2
aa(lp165
I12
aI0
aI0
aI2
aa(lp166
I7
aI0
aI0
aI2
aa(lp167
I5
aI0
aI0
aI2
aa(lp168
I9
aI0
aI0
aI28
aa(lp169
I9
aI0
aI0
aI6
aa(lp170
I15
aI0
aI0
aI25
aa(lp171
I9
aI0
aI0
aI8
aa(lp172
I12
aI0
aI0
aI10
aa(lp173
I9
aI0
aI0
aI4
aa(lp174
I6
aI0
aI0
aI2
aa(lp175
I15
aI0
aI0
aI23
aa(lp176
I8
aI0
aI0
aI2
aa.