(lp1
(lp2
I11
aI0
aI0
aI4
aa(lp3
I19
aI0
aI0
aI0
aa(lp4
I15
aI0
aI0
aI2
aa(lp5
I14
aI0
aI0
aI0
aa(lp6
I17
aI0
aI0
aI8
aa(lp7
I9
aI0
aI0
aI0
aa(lp8
I11
aI0
aI0
aI0
aa(lp9
I19
aI0
aI0
aI2
aa(lp10
I8
aI0
aI0
aI2
aa(lp11
I8
aI0
aI0
aI2
aa(lp12
I13
aI0
aI0
aI6
aa(lp13
I30
aI0
aI0
aI4
aa(lp14
I8
aI0
aI0
aI0
aa(lp15
I10
aI0
aI0
aI6
aa(lp16
I18
aI0
aI0
aI2
aa(lp17
I12
aI0
aI0
aI6
aa(lp18
I8
aI0
aI0
aI2
aa(lp19
I15
aI0
aI0
aI2
aa(lp20
I13
aI0
aI0
aI4
aa(lp21
I8
aI0
aI0
aI6
aa(lp22
I14
aI0
aI0
aI16
aa(lp23
I13
aI0
aI0
aI2
aa(lp24
I23
aI0
aI0
aI6
aa(lp25
I14
aI0
aI0
aI4
aa(lp26
I10
aI0
aI0
aI0
aa(lp27
I9
aI0
aI0
aI0
aa(lp28
I13
aI0
aI0
aI12
aa(lp29
I12
aI0
aI0
aI0
aa(lp30
I11
aI0
aI0
aI6
aa(lp31
I15
aI0
aI0
aI8
aa(lp32
I13
aI0
aI0
aI0
aa(lp33
I8
aI0
aI0
aI0
aa(lp34
I16
aI0
aI0
aI2
aa(lp35
I18
aI0
aI0
aI4
aa(lp36
I10
aI0
aI0
aI0
aa(lp37
I15
aI0
aI0
aI10
aa(lp38
I7
aI0
aI0
aI2
aa(lp39
I9
aI0
aI0
aI14
aa(lp40
I13
aI0
aI0
aI4
aa(lp41
I15
aI0
aI0
aI8
aa(lp42
I15
aI0
aI0
aI0
aa(lp43
I11
aI0
aI0
aI4
aa(lp44
I13
aI0
aI0
aI8
aa(lp45
I8
aI0
aI0
aI2
aa(lp46
I10
aI0
aI0
aI0
aa(lp47
I8
aI0
aI0
aI12
aa(lp48
I5
aI0
aI0
aI0
aa(lp49
I10
aI0
aI0
aI2
aa(lp50
I10
aI0
aI0
aI2
aa(lp51
I23
aI0
aI0
aI16
aa(lp52
I7
aI0
aI0
aI2
aa(lp53
I7
aI0
aI0
aI8
aa(lp54
I14
aI0
aI0
aI10
aa(lp55
I10
aI0
aI0
aI0
aa(lp56
I12
aI0
aI0
aI2
aa(lp57
I14
aI0
aI0
aI0
aa(lp58
I11
aI0
aI0
aI0
aa(lp59
I23
aI0
aI0
aI0
aa(lp60
I5
aI0
aI0
aI2
aa(lp61
I10
aI0
aI0
aI0
aa(lp62
I17
aI0
aI0
aI4
aa(lp63
I18
aI0
aI0
aI6
aa(lp64
I14
aI0
aI0
aI8
aa(lp65
I17
aI0
aI0
aI14
aa(lp66
I0
aI0
aI0
aI0
aa(lp67
I17
aI0
aI0
aI2
aa(lp68
I13
aI0
aI0
aI10
aa(lp69
I6
aI0
aI0
aI0
aa(lp70
I8
aI0
aI0
aI12
aa(lp71
I16
aI0
aI0
aI18
aa(lp72
I9
aI0
aI0
aI0
aa(lp73
I16
aI0
aI0
aI6
aa(lp74
I16
aI0
aI0
aI28
aa(lp75
I9
aI0
aI0
aI2
aa(lp76
I17
aI0
aI0
aI2
aa(lp77
I14
aI0
aI0
aI8
aa(lp78
I14
aI0
aI0
aI4
aa(lp79
I17
aI0
aI0
aI0
aa(lp80
I14
aI0
aI0
aI2
aa(lp81
I12
aI0
aI0
aI0
aa(lp82
I8
aI0
aI0
aI10
aa(lp83
I18
aI0
aI0
aI4
aa(lp84
I21
aI0
aI0
aI6
aa(lp85
I14
aI0
aI0
aI6
aa(lp86
I8
aI0
aI0
aI6
aa(lp87
I7
aI0
aI0
aI0
aa(lp88
I8
aI0
aI0
aI2
aa(lp89
I14
aI0
aI0
aI0
aa(lp90
I16
aI0
aI0
aI12
aa(lp91
I15
aI0
aI0
aI6
aa(lp92
I13
aI0
aI0
aI0
aa(lp93
I6
aI0
aI0
aI2
aa(lp94
I12
aI0
aI0
aI2
aa(lp95
I16
aI0
aI0
aI26
aa(lp96
I16
aI0
aI0
aI6
aa(lp97
I19
aI0
aI0
aI4
aa(lp98
I15
aI0
aI0
aI2
aa(lp99
I13
aI0
aI0
aI8
aa(lp100
I6
aI0
aI0
aI2
aa(lp101
I9
aI0
aI0
aI2
aa(lp102
I25
aI0
aI0
aI10
aa(lp103
I10
aI0
aI0
aI4
aa(lp104
I12
aI0
aI0
aI8
aa(lp105
I13
aI0
aI0
aI2
aa(lp106
I7
aI0
aI0
aI8
aa(lp107
I12
aI0
aI0
aI4
aa(lp108
I16
aI0
aI0
aI18
aa(lp109
I16
aI0
aI0
aI32
aa(lp110
I12
aI0
aI0
aI2
aa(lp111
I5
aI0
aI0
aI0
aa(lp112
I8
aI0
aI0
aI4
aa(lp113
I9
aI0
aI0
aI2
aa(lp114
I9
aI0
aI0
aI2
aa(lp115
I16
aI0
aI0
aI0
aa(lp116
I12
aI0
aI0
aI2
aa(lp117
I13
aI0
aI0
aI2
aa(lp118
I16
aI0
aI0
aI2
aa(lp119
I14
aI0
aI0
aI0
aa(lp120
I6
aI0
aI0
aI2
aa(lp121
I23
aI0
aI0
aI4
aa(lp122
I13
aI0
aI0
aI6
aa(lp123
I20
aI0
aI0
aI2
aa(lp124
I13
aI0
aI0
aI2
aa(lp125
I13
aI0
aI0
aI6
aa(lp126
I8
aI0
aI0
aI2
aa(lp127
I14
aI0
aI0
aI6
aa(lp128
I13
aI0
aI0
aI2
aa(lp129
I11
aI0
aI0
aI8
aa(lp130
I15
aI0
aI0
aI4
aa(lp131
I13
aI0
aI0
aI0
aa(lp132
I12
aI0
aI0
aI6
aa(lp133
I12
aI0
aI0
aI0
aa(lp134
I18
aI0
aI0
aI2
aa(lp135
I7
aI0
aI0
aI0
aa(lp136
I15
aI0
aI0
aI16
aa(lp137
I11
aI0
aI0
aI8
aa(lp138
I11
aI0
aI0
aI2
aa(lp139
I7
aI0
aI0
aI2
aa(lp140
I19
aI0
aI0
aI0
aa(lp141
I7
aI0
aI0
aI0
aa(lp142
I14
aI0
aI0
aI2
aa(lp143
I7
aI0
aI0
aI2
aa(lp144
I6
aI0
aI0
aI0
aa(lp145
I16
aI0
aI0
aI4
aa(lp146
I16
aI0
aI0
aI12
aa(lp147
I12
aI0
aI0
aI2
aa(lp148
I9
aI0
aI0
aI2
aa(lp149
I5
aI0
aI0
aI0
aa(lp150
I12
aI0
aI0
aI0
aa(lp151
I22
aI0
aI0
aI10
aa(lp152
I13
aI0
aI0
aI2
aa(lp153
I13
aI0
aI0
aI8
aa(lp154
I14
aI0
aI0
aI2
aa(lp155
I12
aI0
aI0
aI2
aa(lp156
I20
aI0
aI0
aI4
aa(lp157
I21
aI0
aI0
aI4
aa(lp158
I15
aI0
aI0
aI0
aa(lp159
I14
aI0
aI0
aI2
aa(lp160
I10
aI0
aI0
aI0
aa(lp161
I6
aI0
aI0
aI4
aa(lp162
I8
aI0
aI0
aI0
aa(lp163
I16
aI0
aI0
aI0
aa(lp164
I14
aI0
aI0
aI4
aa(lp165
I10
aI0
aI0
aI4
aa(lp166
I13
aI0
aI0
aI2
aa(lp167
I17
aI0
aI0
aI0
aa(lp168
I16
aI0
aI0
aI8
aa(lp169
I8
aI0
aI0
aI4
aa(lp170
I9
aI0
aI0
aI4
aa(lp171
I10
aI0
aI0
aI6
aa(lp172
I8
aI0
aI0
aI2
aa(lp173
I12
aI0
aI0
aI10
aa(lp174
I12
aI0
aI0
aI2
aa(lp175
I9
aI0
aI0
aI12
aa(lp176
I16
aI0
aI0
aI0
aa(lp177
I21
aI0
aI0
aI6
aa(lp178
I13
aI0
aI0
aI6
aa(lp179
I8
aI0
aI0
aI6
aa(lp180
I8
aI0
aI0
aI0
aa(lp181
I11
aI0
aI0
aI12
aa(lp182
I10
aI0
aI0
aI0
aa(lp183
I8
aI0
aI0
aI2
aa(lp184
I12
aI0
aI0
aI2
aa(lp185
I11
aI0
aI0
aI6
aa(lp186
I13
aI0
aI0
aI2
aa(lp187
I9
aI0
aI0
aI0
aa(lp188
I9
aI0
aI0
aI10
aa(lp189
I5
aI0
aI0
aI4
aa(lp190
I9
aI0
aI0
aI6
aa(lp191
I12
aI0
aI0
aI4
aa(lp192
I12
aI0
aI0
aI4
aa(lp193
I13
aI0
aI0
aI0
aa(lp194
I15
aI0
aI0
aI2
aa(lp195
I6
aI0
aI0
aI0
aa(lp196
I9
aI0
aI0
aI10
aa(lp197
I5
aI0
aI0
aI0
aa(lp198
I19
aI0
aI0
aI2
aa(lp199
I10
aI0
aI0
aI2
aa(lp200
I12
aI0
aI0
aI4
aa(lp201
I8
aI0
aI0
aI2
aa(lp202
I11
aI0
aI0
aI2
aa(lp203
I5
aI0
aI0
aI2
aa(lp204
I4
aI0
aI0
aI0
aa(lp205
I13
aI0
aI0
aI4
aa(lp206
I8
aI0
aI0
aI2
aa(lp207
I12
aI0
aI0
aI2
aa(lp208
I6
aI0
aI0
aI0
aa(lp209
I13
aI0
aI0
aI4
aa(lp210
I19
aI0
aI0
aI6
aa(lp211
I12
aI0
aI0
aI0
aa(lp212
I8
aI0
aI0
aI2
aa(lp213
I13
aI0
aI0
aI6
aa(lp214
I9
aI0
aI0
aI0
aa(lp215
I13
aI0
aI0
aI2
aa(lp216
I8
aI0
aI0
aI2
aa(lp217
I8
aI0
aI0
aI8
aa(lp218
I6
aI0
aI0
aI0
aa(lp219
I18
aI0
aI0
aI8
aa(lp220
I13
aI0
aI0
aI0
aa(lp221
I11
aI0
aI0
aI6
aa(lp222
I13
aI0
aI0
aI8
aa(lp223
I12
aI0
aI0
aI4
aa(lp224
I11
aI0
aI0
aI8
aa(lp225
I11
aI0
aI0
aI16
aa(lp226
I6
aI0
aI0
aI4
aa(lp227
I10
aI0
aI0
aI0
aa(lp228
I10
aI0
aI0
aI6
aa(lp229
I13
aI0
aI0
aI6
aa(lp230
I14
aI0
aI0
aI2
aa(lp231
I9
aI0
aI0
aI0
aa(lp232
I8
aI0
aI0
aI2
aa(lp233
I14
aI0
aI0
aI14
aa(lp234
I11
aI0
aI0
aI2
aa(lp235
I4
aI0
aI0
aI0
aa(lp236
I10
aI0
aI0
aI2
aa(lp237
I15
aI0
aI0
aI14
aa(lp238
I7
aI0
aI0
aI0
aa(lp239
I18
aI0
aI0
aI0
aa(lp240
I9
aI0
aI0
aI6
aa(lp241
I13
aI0
aI0
aI6
aa(lp242
I18
aI0
aI0
aI10
aa(lp243
I7
aI0
aI0
aI2
aa(lp244
I15
aI0
aI0
aI12
aa(lp245
I9
aI0
aI0
aI0
aa(lp246
I12
aI0
aI0
aI16
aa(lp247
I13
aI0
aI0
aI0
aa(lp248
I6
aI0
aI0
aI0
aa(lp249
I23
aI0
aI0
aI4
aa(lp250
I13
aI0
aI0
aI4
aa(lp251
I13
aI0
aI0
aI8
aa(lp252
I11
aI0
aI0
aI2
aa(lp253
I12
aI0
aI0
aI2
aa(lp254
I10
aI0
aI0
aI2
aa(lp255
I11
aI0
aI0
aI6
aa(lp256
I11
aI0
aI0
aI2
aa(lp257
I15
aI0
aI0
aI2
aa(lp258
I17
aI0
aI0
aI4
aa(lp259
I14
aI0
aI0
aI2
aa(lp260
I14
aI0
aI0
aI6
aa(lp261
I8
aI0
aI0
aI14
aa(lp262
I16
aI0
aI0
aI6
aa(lp263
I18
aI0
aI0
aI10
aa(lp264
I11
aI0
aI0
aI0
aa(lp265
I7
aI0
aI0
aI0
aa(lp266
I21
aI0
aI0
aI12
aa(lp267
I8
aI0
aI0
aI4
aa(lp268
I9
aI0
aI0
aI0
aa(lp269
I18
aI0
aI0
aI6
aa(lp270
I10
aI0
aI0
aI0
aa(lp271
I16
aI0
aI0
aI0
aa(lp272
I12
aI0
aI0
aI2
aa(lp273
I13
aI0
aI0
aI4
aa(lp274
I16
aI0
aI0
aI36
aa(lp275
I13
aI0
aI0
aI0
aa(lp276
I9
aI0
aI0
aI16
aa(lp277
I14
aI0
aI0
aI18
aa(lp278
I22
aI0
aI0
aI4
aa(lp279
I6
aI0
aI0
aI4
aa(lp280
I13
aI0
aI0
aI8
aa(lp281
I9
aI0
aI0
aI6
aa(lp282
I9
aI0
aI0
aI2
aa(lp283
I10
aI0
aI0
aI6
aa(lp284
I24
aI0
aI0
aI6
aa(lp285
I8
aI0
aI0
aI20
aa(lp286
I10
aI0
aI0
aI2
aa(lp287
I14
aI0
aI0
aI0
aa(lp288
I16
aI0
aI0
aI6
aa(lp289
I13
aI0
aI0
aI2
aa(lp290
I13
aI0
aI0
aI2
aa(lp291
I13
aI0
aI0
aI18
aa(lp292
I13
aI0
aI0
aI6
aa(lp293
I21
aI0
aI0
aI8
aa(lp294
I16
aI0
aI0
aI6
aa(lp295
I7
aI0
aI0
aI0
aa(lp296
I8
aI0
aI0
aI2
aa(lp297
I17
aI0
aI0
aI10
aa(lp298
I11
aI0
aI0
aI0
aa(lp299
I12
aI0
aI0
aI4
aa(lp300
I16
aI0
aI0
aI2
aa(lp301
I10
aI0
aI0
aI0
aa(lp302
I16
aI0
aI0
aI6
aa(lp303
I13
aI0
aI0
aI2
aa(lp304
I15
aI0
aI0
aI2
aa(lp305
I19
aI0
aI0
aI6
aa(lp306
I10
aI0
aI0
aI2
aa(lp307
I10
aI0
aI0
aI4
aa(lp308
I8
aI0
aI0
aI2
aa(lp309
I15
aI0
aI0
aI32
aa(lp310
I9
aI0
aI0
aI0
aa(lp311
I17
aI0
aI0
aI0
aa(lp312
I9
aI0
aI0
aI6
aa(lp313
I11
aI0
aI0
aI2
aa(lp314
I10
aI0
aI0
aI6
aa(lp315
I14
aI0
aI0
aI6
aa(lp316
I11
aI0
aI0
aI0
aa(lp317
I11
aI0
aI0
aI0
aa(lp318
I16
aI0
aI0
aI4
aa(lp319
I12
aI0
aI0
aI2
aa(lp320
I14
aI0
aI0
aI2
aa(lp321
I10
aI0
aI0
aI2
aa(lp322
I21
aI0
aI0
aI8
aa(lp323
I18
aI0
aI0
aI4
aa(lp324
I9
aI0
aI0
aI2
aa(lp325
I9
aI0
aI0
aI4
aa(lp326
I10
aI0
aI0
aI2
aa(lp327
I14
aI0
aI0
aI4
aa(lp328
I14
aI0
aI0
aI2
aa(lp329
I18
aI0
aI0
aI8
aa(lp330
I16
aI0
aI0
aI2
aa(lp331
I7
aI0
aI0
aI2
aa(lp332
I19
aI0
aI0
aI8
aa(lp333
I6
aI0
aI0
aI0
aa(lp334
I17
aI0
aI0
aI0
aa(lp335
I8
aI0
aI0
aI6
aa(lp336
I17
aI0
aI0
aI4
aa(lp337
I8
aI0
aI0
aI2
aa(lp338
I12
aI0
aI0
aI16
aa(lp339
I8
aI0
aI0
aI2
aa(lp340
I9
aI0
aI0
aI4
aa(lp341
I13
aI0
aI0
aI2
aa(lp342
I13
aI0
aI0
aI0
aa(lp343
I15
aI0
aI0
aI2
aa(lp344
I7
aI0
aI0
aI2
aa(lp345
I14
aI0
aI0
aI12
aa(lp346
I10
aI0
aI0
aI0
aa(lp347
I20
aI0
aI0
aI4
aa(lp348
I7
aI0
aI0
aI6
aa(lp349
I18
aI0
aI0
aI6
aa(lp350
I9
aI0
aI0
aI0
aa(lp351
I14
aI0
aI0
aI0
aa(lp352
I8
aI0
aI0
aI2
aa(lp353
I8
aI0
aI0
aI2
aa(lp354
I17
aI0
aI0
aI6
aa(lp355
I17
aI0
aI0
aI12
aa(lp356
I19
aI0
aI0
aI14
aa(lp357
I13
aI0
aI0
aI4
aa(lp358
I8
aI0
aI0
aI2
aa(lp359
I9
aI0
aI0
aI14
aa(lp360
I16
aI0
aI0
aI14
aa(lp361
I16
aI0
aI0
aI8
aa(lp362
I12
aI0
aI0
aI2
aa(lp363
I6
aI0
aI0
aI0
aa(lp364
I10
aI0
aI0
aI2
aa(lp365
I12
aI0
aI0
aI12
aa(lp366
I7
aI0
aI0
aI2
aa(lp367
I11
aI0
aI0
aI2
aa(lp368
I9
aI0
aI0
aI28
aa(lp369
I16
aI0
aI0
aI6
aa(lp370
I12
aI0
aI0
aI4
aa(lp371
I9
aI0
aI0
aI4
aa(lp372
I5
aI0
aI0
aI2
aa(lp373
I9
aI0
aI0
aI0
aa(lp374
I17
aI0
aI0
aI10
aa(lp375
I17
aI0
aI0
aI2
aa(lp376
I8
aI0
aI0
aI2
aa(lp377
I8
aI0
aI0
aI0
aa(lp378
I9
aI0
aI0
aI4
aa(lp379
I11
aI0
aI0
aI4
aa(lp380
I15
aI0
aI0
aI22
aa(lp381
I8
aI0
aI0
aI2
aa(lp382
I16
aI0
aI0
aI4
aa(lp383
I13
aI0
aI0
aI0
aa(lp384
I5
aI0
aI0
aI0
aa(lp385
I17
aI0
aI0
aI4
aa(lp386
I9
aI0
aI0
aI8
aa(lp387
I15
aI0
aI0
aI4
aa(lp388
I17
aI0
aI0
aI8
aa(lp389
I15
aI0
aI0
aI6
aa(lp390
I18
aI0
aI0
aI2
aa(lp391
I11
aI0
aI0
aI0
aa(lp392
I7
aI0
aI0
aI0
aa(lp393
I24
aI0
aI0
aI2
aa(lp394
I17
aI0
aI0
aI10
aa(lp395
I14
aI0
aI0
aI2
aa(lp396
I12
aI0
aI0
aI0
aa(lp397
I14
aI0
aI0
aI0
aa(lp398
I14
aI0
aI0
aI2
aa(lp399
I19
aI0
aI0
aI4
aa(lp400
I15
aI0
aI0
aI24
aa(lp401
I13
aI0
aI0
aI6
aa(lp402
I14
aI0
aI0
aI2
aa(lp403
I17
aI0
aI0
aI22
aa(lp404
I10
aI0
aI0
aI2
aa(lp405
I14
aI0
aI0
aI2
aa(lp406
I9
aI0
aI0
aI4
aa(lp407
I12
aI0
aI0
aI8
aa(lp408
I13
aI0
aI0
aI14
aa(lp409
I16
aI0
aI0
aI4
aa(lp410
I13
aI0
aI0
aI14
aa(lp411
I16
aI0
aI0
aI2
aa(lp412
I17
aI0
aI0
aI0
aa(lp413
I10
aI0
aI0
aI4
aa(lp414
I18
aI0
aI0
aI0
aa(lp415
I19
aI0
aI0
aI2
aa(lp416
I8
aI0
aI0
aI2
aa(lp417
I12
aI0
aI0
aI0
aa(lp418
I17
aI0
aI0
aI2
aa(lp419
I12
aI0
aI0
aI12
aa(lp420
I15
aI0
aI0
aI4
aa(lp421
I15
aI0
aI0
aI0
aa(lp422
I24
aI0
aI0
aI10
aa(lp423
I10
aI0
aI0
aI8
aa(lp424
I14
aI0
aI0
aI2
aa(lp425
I13
aI0
aI0
aI2
aa(lp426
I10
aI0
aI0
aI16
aa(lp427
I22
aI0
aI0
aI0
aa(lp428
I12
aI0
aI0
aI2
aa(lp429
I14
aI0
aI0
aI2
aa(lp430
I13
aI0
aI0
aI0
aa(lp431
I21
aI0
aI0
aI4
aa(lp432
I17
aI0
aI0
aI2
aa(lp433
I13
aI0
aI0
aI4
aa(lp434
I15
aI0
aI0
aI10
aa(lp435
I13
aI0
aI0
aI2
aa(lp436
I15
aI0
aI0
aI4
aa(lp437
I11
aI0
aI0
aI0
aa(lp438
I7
aI0
aI0
aI4
aa(lp439
I6
aI0
aI0
aI2
aa(lp440
I4
aI0
aI0
aI2
aa(lp441
I17
aI0
aI0
aI2
aa(lp442
I11
aI0
aI0
aI0
aa(lp443
I16
aI0
aI0
aI12
aa(lp444
I16
aI0
aI0
aI4
aa(lp445
I13
aI0
aI0
aI0
aa(lp446
I16
aI0
aI0
aI4
aa(lp447
I11
aI0
aI0
aI8
aa(lp448
I10
aI0
aI0
aI4
aa(lp449
I21
aI0
aI0
aI12
aa(lp450
I13
aI0
aI0
aI0
aa(lp451
I20
aI0
aI0
aI0
aa(lp452
I14
aI0
aI0
aI6
aa(lp453
I13
aI0
aI0
aI0
aa(lp454
I23
aI0
aI0
aI12
aa(lp455
I9
aI0
aI0
aI2
aa(lp456
I11
aI0
aI0
aI2
aa(lp457
I8
aI0
aI0
aI4
aa(lp458
I7
aI0
aI0
aI2
aa(lp459
I11
aI0
aI0
aI12
aa(lp460
I13
aI0
aI0
aI4
aa(lp461
I16
aI0
aI0
aI10
aa(lp462
I12
aI0
aI0
aI8
aa(lp463
I17
aI0
aI0
aI2
aa(lp464
I11
aI0
aI0
aI2
aa(lp465
I17
aI0
aI0
aI8
aa(lp466
I11
aI0
aI0
aI20
aa(lp467
I12
aI0
aI0
aI10
aa(lp468
I8
aI0
aI0
aI4
aa(lp469
I17
aI0
aI0
aI8
aa(lp470
I8
aI0
aI0
aI6
aa(lp471
I11
aI0
aI0
aI0
aa(lp472
I12
aI0
aI0
aI14
aa(lp473
I8
aI0
aI0
aI0
aa(lp474
I17
aI0
aI0
aI2
aa(lp475
I13
aI0
aI0
aI0
aa(lp476
I15
aI0
aI0
aI0
aa(lp477
I13
aI0
aI0
aI2
aa(lp478
I10
aI0
aI0
aI0
aa(lp479
I22
aI0
aI0
aI4
aa(lp480
I13
aI0
aI0
aI8
aa(lp481
I9
aI0
aI0
aI8
aa(lp482
I20
aI0
aI0
aI4
aa(lp483
I9
aI0
aI0
aI6
aa(lp484
I10
aI0
aI0
aI6
aa(lp485
I13
aI0
aI0
aI2
aa(lp486
I11
aI0
aI0
aI2
aa(lp487
I5
aI0
aI0
aI2
aa(lp488
I8
aI0
aI0
aI2
aa(lp489
I18
aI0
aI0
aI14
aa(lp490
I13
aI0
aI0
aI8
aa(lp491
I16
aI0
aI0
aI2
aa(lp492
I12
aI0
aI0
aI0
aa(lp493
I20
aI0
aI0
aI6
aa(lp494
I15
aI0
aI0
aI0
aa(lp495
I11
aI0
aI0
aI4
aa(lp496
I16
aI0
aI0
aI2
aa(lp497
I13
aI0
aI0
aI6
aa(lp498
I13
aI0
aI0
aI4
aa(lp499
I12
aI0
aI0
aI2
aa(lp500
I5
aI0
aI0
aI2
aa(lp501
I10
aI0
aI0
aI6
aa(lp502
I10
aI0
aI0
aI22
aa(lp503
I14
aI0
aI0
aI2
aa(lp504
I10
aI0
aI0
aI0
aa(lp505
I8
aI0
aI0
aI6
aa(lp506
I12
aI0
aI0
aI10
aa(lp507
I10
aI0
aI0
aI0
aa(lp508
I5
aI0
aI0
aI6
aa(lp509
I11
aI0
aI0
aI6
aa(lp510
I13
aI0
aI0
aI18
aa(lp511
I8
aI0
aI0
aI6
aa(lp512
I14
aI0
aI0
aI16
aa(lp513
I10
aI0
aI0
aI4
aa(lp514
I13
aI0
aI0
aI8
aa(lp515
I21
aI0
aI0
aI2
aa(lp516
I11
aI0
aI0
aI2
aa(lp517
I11
aI0
aI0
aI8
aa(lp518
I9
aI0
aI0
aI6
aa(lp519
I10
aI0
aI0
aI6
aa(lp520
I6
aI0
aI0
aI0
aa(lp521
I9
aI0
aI0
aI10
aa(lp522
I14
aI0
aI0
aI2
aa(lp523
I14
aI0
aI0
aI18
aa(lp524
I6
aI0
aI0
aI2
aa(lp525
I14
aI0
aI0
aI0
aa(lp526
I6
aI0
aI0
aI4
aa(lp527
I11
aI0
aI0
aI2
aa(lp528
I10
aI0
aI0
aI2
aa(lp529
I7
aI0
aI0
aI2
aa(lp530
I14
aI0
aI0
aI0
aa(lp531
I7
aI0
aI0
aI0
aa(lp532
I15
aI0
aI0
aI4
aa(lp533
I20
aI0
aI0
aI8
aa(lp534
I14
aI0
aI0
aI4
aa(lp535
I6
aI0
aI0
aI0
aa(lp536
I11
aI0
aI0
aI0
aa(lp537
I13
aI0
aI0
aI0
aa(lp538
I8
aI0
aI0
aI0
aa(lp539
I11
aI0
aI0
aI14
aa(lp540
I9
aI0
aI0
aI6
aa(lp541
I7
aI0
aI0
aI0
aa(lp542
I19
aI0
aI0
aI2
aa(lp543
I12
aI0
aI0
aI4
aa(lp544
I16
aI0
aI0
aI4
aa(lp545
I8
aI0
aI0
aI2
aa(lp546
I10
aI0
aI0
aI16
aa(lp547
I14
aI0
aI0
aI6
aa(lp548
I7
aI0
aI0
aI2
aa(lp549
I11
aI0
aI0
aI2
aa(lp550
I7
aI0
aI0
aI0
aa(lp551
I16
aI0
aI0
aI0
aa(lp552
I13
aI0
aI0
aI10
aa(lp553
I14
aI0
aI0
aI12
aa(lp554
I15
aI0
aI0
aI6
aa(lp555
I12
aI0
aI0
aI2
aa(lp556
I10
aI0
aI0
aI2
aa(lp557
I15
aI0
aI0
aI0
aa(lp558
I16
aI0
aI0
aI10
aa(lp559
I9
aI0
aI0
aI8
aa(lp560
I13
aI0
aI0
aI2
aa(lp561
I10
aI0
aI0
aI2
aa(lp562
I15
aI0
aI0
aI14
aa(lp563
I12
aI0
aI0
aI2
aa(lp564
I10
aI0
aI0
aI12
aa(lp565
I8
aI0
aI0
aI0
aa(lp566
I7
aI0
aI0
aI6
aa(lp567
I10
aI0
aI0
aI12
aa(lp568
I12
aI0
aI0
aI4
aa(lp569
I12
aI0
aI0
aI0
aa(lp570
I14
aI0
aI0
aI14
aa(lp571
I17
aI0
aI0
aI4
aa(lp572
I21
aI0
aI0
aI8
aa(lp573
I16
aI0
aI0
aI6
aa(lp574
I15
aI0
aI0
aI4
aa(lp575
I12
aI0
aI0
aI0
aa(lp576
I8
aI0
aI0
aI12
aa(lp577
I12
aI0
aI0
aI0
aa(lp578
I5
aI0
aI0
aI4
aa(lp579
I17
aI0
aI0
aI6
aa(lp580
I14
aI0
aI0
aI4
aa(lp581
I11
aI0
aI0
aI0
aa(lp582
I27
aI0
aI0
aI2
aa(lp583
I11
aI0
aI0
aI12
aa(lp584
I10
aI0
aI0
aI2
aa(lp585
I7
aI0
aI0
aI6
aa(lp586
I11
aI0
aI0
aI4
aa(lp587
I11
aI0
aI0
aI0
aa(lp588
I14
aI0
aI0
aI0
aa(lp589
I6
aI0
aI0
aI0
aa(lp590
I14
aI0
aI0
aI16
aa(lp591
I15
aI0
aI0
aI8
aa(lp592
I15
aI0
aI0
aI0
aa(lp593
I11
aI0
aI0
aI10
aa(lp594
I12
aI0
aI0
aI8
aa(lp595
I14
aI0
aI0
aI6
aa(lp596
I13
aI0
aI0
aI2
aa(lp597
I12
aI0
aI0
aI10
aa(lp598
I11
aI0
aI0
aI4
aa(lp599
I10
aI0
aI0
aI0
aa(lp600
I19
aI0
aI0
aI4
aa(lp601
I17
aI0
aI0
aI2
aa(lp602
I7
aI0
aI0
aI2
aa(lp603
I21
aI0
aI0
aI8
aa(lp604
I14
aI0
aI0
aI4
aa(lp605
I14
aI0
aI0
aI2
aa(lp606
I18
aI0
aI0
aI0
aa(lp607
I10
aI0
aI0
aI2
aa(lp608
I15
aI0
aI0
aI0
aa(lp609
I14
aI0
aI0
aI2
aa(lp610
I7
aI0
aI0
aI0
aa(lp611
I11
aI0
aI0
aI0
aa(lp612
I7
aI0
aI0
aI2
aa(lp613
I6
aI0
aI0
aI2
aa(lp614
I17
aI0
aI0
aI46
aa(lp615
I10
aI0
aI0
aI2
aa(lp616
I16
aI0
aI0
aI0
aa(lp617
I11
aI0
aI0
aI0
aa(lp618
I5
aI0
aI0
aI0
aa(lp619
I20
aI0
aI0
aI2
aa(lp620
I7
aI0
aI0
aI2
aa(lp621
I13
aI0
aI0
aI4
aa(lp622
I8
aI0
aI0
aI4
aa(lp623
I13
aI0
aI0
aI6
aa(lp624
I15
aI0
aI0
aI14
aa(lp625
I12
aI0
aI0
aI6
aa(lp626
I12
aI0
aI0
aI0
aa(lp627
I8
aI0
aI0
aI6
aa(lp628
I15
aI0
aI0
aI0
aa(lp629
I15
aI0
aI0
aI2
aa(lp630
I8
aI0
aI0
aI4
aa.