(lp1
(lp2
I0
aI0
aI0
aI0
aa(lp3
I13
aI0
aI0
aI2
aa(lp4
I0
aI0
aI0
aI0
aa(lp5
I21
aI0
aI0
aI12
aa(lp6
I2
aI0
aI0
aI0
aa(lp7
I0
aI0
aI0
aI0
aa(lp8
I0
aI0
aI0
aI0
aa(lp9
I14
aI0
aI0
aI6
aa(lp10
I9
aI0
aI0
aI0
aa(lp11
I0
aI0
aI0
aI0
aa(lp12
I0
aI0
aI0
aI0
aa(lp13
I12
aI0
aI0
aI0
aa(lp14
I14
aI0
aI0
aI0
aa(lp15
I7
aI0
aI0
aI2
aa(lp16
I13
aI0
aI0
aI0
aa(lp17
I0
aI0
aI0
aI0
aa(lp18
I2
aI0
aI0
aI0
aa(lp19
I0
aI0
aI0
aI0
aa(lp20
I18
aI0
aI0
aI0
aa(lp21
I8
aI0
aI0
aI2
aa(lp22
I0
aI0
aI0
aI0
aa(lp23
I19
aI0
aI0
aI2
aa(lp24
I12
aI0
aI0
aI0
aa(lp25
I0
aI0
aI0
aI0
aa(lp26
I7
aI0
aI0
aI0
aa(lp27
I13
aI0
aI0
aI8
aa(lp28
I0
aI0
aI0
aI0
aa(lp29
I0
aI0
aI0
aI0
aa(lp30
I18
aI0
aI0
aI0
aa(lp31
I0
aI0
aI0
aI0
aa(lp32
I0
aI0
aI0
aI0
aa(lp33
I14
aI0
aI0
aI4
aa(lp34
I15
aI0
aI0
aI2
aa(lp35
I23
aI0
aI0
aI16
aa(lp36
I5
aI0
aI0
aI0
aa(lp37
I0
aI0
aI0
aI0
aa(lp38
I0
aI0
aI0
aI0
aa(lp39
I0
aI0
aI0
aI0
aa(lp40
I0
aI0
aI0
aI0
aa(lp41
I12
aI0
aI0
aI2
aa(lp42
I12
aI0
aI0
aI0
aa(lp43
I8
aI0
aI0
aI2
aa(lp44
I15
aI0
aI0
aI0
aa(lp45
I0
aI0
aI0
aI0
aa(lp46
I14
aI0
aI0
aI2
aa(lp47
I10
aI0
aI0
aI0
aa(lp48
I16
aI0
aI0
aI0
aa(lp49
I0
aI0
aI0
aI0
aa(lp50
I19
aI0
aI0
aI2
aa(lp51
I0
aI0
aI0
aI0
aa(lp52
I12
aI0
aI0
aI2
aa(lp53
I0
aI0
aI0
aI0
aa(lp54
I0
aI0
aI0
aI0
aa(lp55
I0
aI0
aI0
aI0
aa(lp56
I14
aI0
aI0
aI2
aa(lp57
I16
aI0
aI0
aI2
aa(lp58
I13
aI0
aI0
aI0
aa(lp59
I0
aI0
aI0
aI0
aa(lp60
I0
aI0
aI0
aI0
aa(lp61
I15
aI0
aI0
aI4
aa(lp62
I15
aI0
aI0
aI0
aa(lp63
I0
aI0
aI0
aI0
aa(lp64
I7
aI0
aI0
aI0
aa(lp65
I14
aI0
aI0
aI6
aa(lp66
I0
aI0
aI0
aI0
aa(lp67
I0
aI0
aI0
aI0
aa(lp68
I0
aI0
aI0
aI0
aa(lp69
I0
aI0
aI0
aI0
aa(lp70
I0
aI0
aI0
aI0
aa(lp71
I0
aI0
aI0
aI0
aa(lp72
I7
aI0
aI0
aI0
aa(lp73
I0
aI0
aI0
aI0
aa(lp74
I21
aI0
aI0
aI4
aa(lp75
I12
aI0
aI0
aI0
aa(lp76
I0
aI0
aI0
aI0
aa(lp77
I11
aI0
aI0
aI0
aa(lp78
I14
aI0
aI0
aI2
aa(lp79
I0
aI0
aI0
aI0
aa(lp80
I20
aI0
aI0
aI2
aa(lp81
I11
aI0
aI0
aI0
aa(lp82
I0
aI0
aI0
aI0
aa(lp83
I18
aI0
aI0
aI6
aa(lp84
I16
aI0
aI0
aI2
aa(lp85
I0
aI0
aI0
aI0
aa(lp86
I0
aI0
aI0
aI0
aa(lp87
I17
aI0
aI0
aI2
aa(lp88
I0
aI0
aI0
aI0
aa(lp89
I0
aI0
aI0
aI0
aa(lp90
I14
aI0
aI0
aI0
aa(lp91
I8
aI0
aI0
aI2
aa(lp92
I0
aI0
aI0
aI0
aa(lp93
I0
aI0
aI0
aI0
aa(lp94
I0
aI0
aI0
aI0
aa(lp95
I10
aI0
aI0
aI2
aa(lp96
I0
aI0
aI0
aI0
aa(lp97
I21
aI0
aI0
aI2
aa(lp98
I4
aI0
aI0
aI2
aa(lp99
I0
aI0
aI0
aI0
aa(lp100
I14
aI0
aI0
aI2
aa(lp101
I13
aI0
aI0
aI8
aa(lp102
I0
aI0
aI0
aI0
aa(lp103
I0
aI0
aI0
aI0
aa(lp104
I0
aI0
aI0
aI0
aa(lp105
I13
aI0
aI0
aI0
aa(lp106
I0
aI0
aI0
aI0
aa(lp107
I8
aI0
aI0
aI2
aa(lp108
I16
aI0
aI0
aI4
aa(lp109
I0
aI0
aI0
aI0
aa(lp110
I0
aI0
aI0
aI0
aa(lp111
I0
aI0
aI0
aI0
aa(lp112
I0
aI0
aI0
aI0
aa(lp113
I12
aI0
aI0
aI0
aa(lp114
I0
aI0
aI0
aI0
aa(lp115
I0
aI0
aI0
aI0
aa(lp116
I17
aI0
aI0
aI2
aa(lp117
I0
aI0
aI0
aI0
aa(lp118
I0
aI0
aI0
aI0
aa(lp119
I0
aI0
aI0
aI0
aa(lp120
I1
aI0
aI0
aI0
aa(lp121
I0
aI0
aI0
aI0
aa(lp122
I14
aI0
aI0
aI0
aa(lp123
I0
aI0
aI0
aI0
aa(lp124
I11
aI0
aI0
aI2
aa(lp125
I0
aI0
aI0
aI0
aa(lp126
I0
aI0
aI0
aI0
aa(lp127
I0
aI0
aI0
aI0
aa(lp128
I13
aI0
aI0
aI2
aa(lp129
I15
aI0
aI0
aI4
aa(lp130
I21
aI0
aI0
aI6
aa(lp131
I0
aI0
aI0
aI0
aa(lp132
I8
aI0
aI0
aI2
aa(lp133
I0
aI0
aI0
aI0
aa(lp134
I10
aI0
aI0
aI0
aa(lp135
I0
aI0
aI0
aI0
aa(lp136
I0
aI0
aI0
aI0
aa(lp137
I0
aI0
aI0
aI0
aa(lp138
I13
aI0
aI0
aI8
aa(lp139
I12
aI0
aI0
aI2
aa(lp140
I0
aI0
aI0
aI0
aa(lp141
I0
aI0
aI0
aI0
aa(lp142
I1
aI0
aI0
aI0
aa(lp143
I0
aI0
aI0
aI0
aa(lp144
I19
aI0
aI0
aI0
aa(lp145
I11
aI0
aI0
aI0
aa(lp146
I0
aI0
aI0
aI0
aa(lp147
I17
aI0
aI0
aI2
aa(lp148
I16
aI0
aI0
aI0
aa(lp149
I23
aI0
aI0
aI4
aa(lp150
I19
aI0
aI0
aI4
aa(lp151
I0
aI0
aI0
aI0
aa(lp152
I0
aI0
aI0
aI0
aa(lp153
I0
aI0
aI0
aI0
aa(lp154
I0
aI0
aI0
aI0
aa(lp155
I2
aI0
aI0
aI0
aa(lp156
I0
aI0
aI0
aI0
aa(lp157
I6
aI0
aI0
aI4
aa(lp158
I1
aI0
aI0
aI0
aa(lp159
I15
aI0
aI0
aI6
aa(lp160
I12
aI0
aI0
aI0
aa(lp161
I10
aI0
aI0
aI2
aa(lp162
I0
aI0
aI0
aI0
aa(lp163
I11
aI0
aI0
aI0
aa(lp164
I13
aI0
aI0
aI0
aa(lp165
I0
aI0
aI0
aI0
aa(lp166
I0
aI0
aI0
aI0
aa(lp167
I14
aI0
aI0
aI2
aa(lp168
I0
aI0
aI0
aI0
aa(lp169
I22
aI0
aI0
aI4
aa(lp170
I14
aI0
aI0
aI0
aa(lp171
I0
aI0
aI0
aI0
aa(lp172
I0
aI0
aI0
aI0
aa(lp173
I0
aI0
aI0
aI0
aa(lp174
I15
aI0
aI0
aI2
aa(lp175
I0
aI0
aI0
aI0
aa(lp176
I13
aI0
aI0
aI4
aa(lp177
I10
aI0
aI0
aI0
aa(lp178
I0
aI0
aI0
aI0
aa(lp179
I16
aI0
aI0
aI2
aa(lp180
I20
aI0
aI0
aI4
aa(lp181
I11
aI0
aI0
aI2
aa(lp182
I12
aI0
aI0
aI4
aa(lp183
I8
aI0
aI0
aI0
aa(lp184
I0
aI0
aI0
aI0
aa(lp185
I19
aI0
aI0
aI2
aa(lp186
I11
aI0
aI0
aI0
aa(lp187
I11
aI0
aI0
aI0
aa(lp188
I0
aI0
aI0
aI0
aa(lp189
I12
aI0
aI0
aI2
aa(lp190
I17
aI0
aI0
aI2
aa(lp191
I11
aI0
aI0
aI2
aa(lp192
I14
aI0
aI0
aI2
aa(lp193
I0
aI0
aI0
aI0
aa(lp194
I1
aI0
aI0
aI0
aa(lp195
I7
aI0
aI0
aI0
aa(lp196
I0
aI0
aI0
aI0
aa(lp197
I0
aI0
aI0
aI0
aa(lp198
I0
aI0
aI0
aI0
aa(lp199
I0
aI0
aI0
aI0
aa(lp200
I10
aI0
aI0
aI0
aa(lp201
I0
aI0
aI0
aI0
aa(lp202
I0
aI0
aI0
aI0
aa(lp203
I14
aI0
aI0
aI0
aa(lp204
I11
aI0
aI0
aI2
aa(lp205
I0
aI0
aI0
aI0
aa(lp206
I0
aI0
aI0
aI0
aa(lp207
I15
aI0
aI0
aI0
aa(lp208
I0
aI0
aI0
aI0
aa(lp209
I21
aI0
aI0
aI4
aa(lp210
I12
aI0
aI0
aI2
aa(lp211
I6
aI0
aI0
aI0
aa(lp212
I0
aI0
aI0
aI0
aa(lp213
I14
aI0
aI0
aI0
aa(lp214
I0
aI0
aI0
aI0
aa(lp215
I20
aI0
aI0
aI8
aa(lp216
I0
aI0
aI0
aI0
aa(lp217
I0
aI0
aI0
aI0
aa(lp218
I0
aI0
aI0
aI0
aa(lp219
I8
aI0
aI0
aI2
aa(lp220
I0
aI0
aI0
aI0
aa(lp221
I0
aI0
aI0
aI0
aa(lp222
I7
aI0
aI0
aI0
aa(lp223
I0
aI0
aI0
aI0
aa(lp224
I8
aI0
aI0
aI2
aa(lp225
I14
aI0
aI0
aI4
aa(lp226
I11
aI0
aI0
aI0
aa(lp227
I0
aI0
aI0
aI0
aa(lp228
I11
aI0
aI0
aI0
aa(lp229
I15
aI0
aI0
aI10
aa(lp230
I10
aI0
aI0
aI6
aa(lp231
I15
aI0
aI0
aI4
aa(lp232
I0
aI0
aI0
aI0
aa(lp233
I0
aI0
aI0
aI0
aa(lp234
I2
aI0
aI0
aI0
aa(lp235
I0
aI0
aI0
aI0
aa(lp236
I0
aI0
aI0
aI0
aa(lp237
I16
aI0
aI0
aI2
aa(lp238
I0
aI0
aI0
aI0
aa(lp239
I0
aI0
aI0
aI0
aa(lp240
I10
aI0
aI0
aI2
aa(lp241
I5
aI0
aI0
aI2
aa(lp242
I5
aI0
aI0
aI0
aa(lp243
I0
aI0
aI0
aI0
aa(lp244
I7
aI0
aI0
aI0
aa(lp245
I0
aI0
aI0
aI0
aa(lp246
I0
aI0
aI0
aI0
aa(lp247
I0
aI0
aI0
aI0
aa(lp248
I0
aI0
aI0
aI0
aa(lp249
I11
aI0
aI0
aI0
aa(lp250
I0
aI0
aI0
aI0
aa(lp251
I14
aI0
aI0
aI2
aa(lp252
I6
aI0
aI0
aI0
aa(lp253
I0
aI0
aI0
aI0
aa(lp254
I12
aI0
aI0
aI0
aa(lp255
I0
aI0
aI0
aI0
aa(lp256
I0
aI0
aI0
aI0
aa(lp257
I0
aI0
aI0
aI0
aa(lp258
I0
aI0
aI0
aI0
aa(lp259
I0
aI0
aI0
aI0
aa(lp260
I0
aI0
aI0
aI0
aa(lp261
I0
aI0
aI0
aI0
aa(lp262
I0
aI0
aI0
aI0
aa(lp263
I13
aI0
aI0
aI2
aa(lp264
I10
aI0
aI0
aI2
aa(lp265
I11
aI0
aI0
aI2
aa(lp266
I15
aI0
aI0
aI2
aa(lp267
I0
aI0
aI0
aI0
aa(lp268
I17
aI0
aI0
aI6
aa(lp269
I0
aI0
aI0
aI0
aa(lp270
I13
aI0
aI0
aI2
aa(lp271
I14
aI0
aI0
aI2
aa(lp272
I21
aI0
aI0
aI8
aa(lp273
I0
aI0
aI0
aI0
aa(lp274
I3
aI0
aI0
aI0
aa(lp275
I1
aI0
aI0
aI0
aa(lp276
I0
aI0
aI0
aI0
aa(lp277
I0
aI0
aI0
aI0
aa(lp278
I11
aI0
aI0
aI0
aa(lp279
I0
aI0
aI0
aI0
aa(lp280
I10
aI0
aI0
aI0
aa(lp281
I0
aI0
aI0
aI0
aa(lp282
I0
aI0
aI0
aI0
aa(lp283
I15
aI0
aI0
aI0
aa(lp284
I0
aI0
aI0
aI0
aa(lp285
I0
aI0
aI0
aI0
aa(lp286
I0
aI0
aI0
aI0
aa(lp287
I0
aI0
aI0
aI0
aa(lp288
I0
aI0
aI0
aI0
aa(lp289
I10
aI0
aI0
aI0
aa(lp290
I8
aI0
aI0
aI2
aa(lp291
I0
aI0
aI0
aI0
aa(lp292
I15
aI0
aI0
aI2
aa(lp293
I0
aI0
aI0
aI0
aa(lp294
I0
aI0
aI0
aI0
aa(lp295
I13
aI0
aI0
aI0
aa(lp296
I0
aI0
aI0
aI0
aa(lp297
I7
aI0
aI0
aI0
aa(lp298
I0
aI0
aI0
aI0
aa(lp299
I9
aI0
aI0
aI0
aa(lp300
I24
aI0
aI0
aI6
aa(lp301
I0
aI0
aI0
aI0
aa(lp302
I13
aI0
aI0
aI0
aa(lp303
I13
aI0
aI0
aI2
aa(lp304
I16
aI0
aI0
aI0
aa(lp305
I0
aI0
aI0
aI0
aa(lp306
I0
aI0
aI0
aI0
aa(lp307
I9
aI0
aI0
aI0
aa(lp308
I0
aI0
aI0
aI0
aa(lp309
I0
aI0
aI0
aI0
aa(lp310
I16
aI0
aI0
aI4
aa(lp311
I0
aI0
aI0
aI0
aa(lp312
I13
aI0
aI0
aI0
aa(lp313
I8
aI0
aI0
aI0
aa(lp314
I14
aI0
aI0
aI6
aa(lp315
I0
aI0
aI0
aI0
aa(lp316
I0
aI0
aI0
aI0
aa(lp317
I0
aI0
aI0
aI0
aa(lp318
I13
aI0
aI0
aI2
aa(lp319
I13
aI0
aI0
aI2
aa(lp320
I11
aI0
aI0
aI0
aa(lp321
I0
aI0
aI0
aI0
aa(lp322
I8
aI0
aI0
aI4
aa(lp323
I0
aI0
aI0
aI0
aa(lp324
I0
aI0
aI0
aI0
aa(lp325
I3
aI0
aI0
aI0
aa(lp326
I0
aI0
aI0
aI0
aa(lp327
I11
aI0
aI0
aI4
aa(lp328
I0
aI0
aI0
aI0
aa(lp329
I0
aI0
aI0
aI0
aa(lp330
I13
aI0
aI0
aI0
aa(lp331
I0
aI0
aI0
aI0
aa(lp332
I16
aI0
aI0
aI0
aa(lp333
I8
aI0
aI0
aI0
aa(lp334
I0
aI0
aI0
aI0
aa(lp335
I8
aI0
aI0
aI2
aa(lp336
I0
aI0
aI0
aI0
aa(lp337
I14
aI0
aI0
aI4
aa(lp338
I0
aI0
aI0
aI0
aa(lp339
I0
aI0
aI0
aI0
aa(lp340
I0
aI0
aI0
aI0
aa(lp341
I8
aI0
aI0
aI4
aa(lp342
I17
aI0
aI0
aI4
aa(lp343
I0
aI0
aI0
aI0
aa(lp344
I0
aI0
aI0
aI0
aa(lp345
I14
aI0
aI0
aI2
aa(lp346
I0
aI0
aI0
aI0
aa(lp347
I19
aI0
aI0
aI2
aa(lp348
I21
aI0
aI0
aI8
aa(lp349
I0
aI0
aI0
aI0
aa(lp350
I0
aI0
aI0
aI0
aa(lp351
I7
aI0
aI0
aI2
aa(lp352
I14
aI0
aI0
aI6
aa(lp353
I17
aI0
aI0
aI2
aa(lp354
I0
aI0
aI0
aI0
aa(lp355
I0
aI0
aI0
aI0
aa(lp356
I0
aI0
aI0
aI0
aa(lp357
I16
aI0
aI0
aI0
aa(lp358
I17
aI0
aI0
aI8
aa(lp359
I13
aI0
aI0
aI2
aa(lp360
I12
aI0
aI0
aI10
aa(lp361
I0
aI0
aI0
aI0
aa(lp362
I0
aI0
aI0
aI0
aa(lp363
I0
aI0
aI0
aI0
aa(lp364
I16
aI0
aI0
aI6
aa(lp365
I11
aI0
aI0
aI2
aa(lp366
I0
aI0
aI0
aI0
aa(lp367
I10
aI0
aI0
aI2
aa(lp368
I0
aI0
aI0
aI0
aa(lp369
I20
aI0
aI0
aI0
aa(lp370
I7
aI0
aI0
aI0
aa(lp371
I8
aI0
aI0
aI2
aa(lp372
I0
aI0
aI0
aI0
aa(lp373
I9
aI0
aI0
aI2
aa(lp374
I0
aI0
aI0
aI0
aa(lp375
I0
aI0
aI0
aI0
aa(lp376
I4
aI0
aI0
aI0
aa(lp377
I16
aI0
aI0
aI6
aa(lp378
I0
aI0
aI0
aI0
aa(lp379
I0
aI0
aI0
aI0
aa(lp380
I0
aI0
aI0
aI0
aa(lp381
I0
aI0
aI0
aI0
aa(lp382
I0
aI0
aI0
aI0
aa(lp383
I0
aI0
aI0
aI0
aa(lp384
I0
aI0
aI0
aI0
aa(lp385
I17
aI0
aI0
aI4
aa(lp386
I0
aI0
aI0
aI0
aa.