(lp1
(lp2
I22
aI0
aI0
aI6
aa(lp3
I0
aI0
aI0
aI0
aa(lp4
I7
aI0
aI0
aI0
aa(lp5
I14
aI0
aI0
aI0
aa(lp6
I0
aI0
aI0
aI0
aa(lp7
I14
aI0
aI0
aI0
aa(lp8
I4
aI0
aI0
aI0
aa(lp9
I0
aI0
aI0
aI0
aa(lp10
I0
aI0
aI0
aI0
aa(lp11
I0
aI0
aI0
aI0
aa(lp12
I0
aI0
aI0
aI0
aa(lp13
I0
aI0
aI0
aI0
aa(lp14
I0
aI0
aI0
aI0
aa(lp15
I25
aI0
aI0
aI2
aa(lp16
I24
aI0
aI0
aI6
aa(lp17
I0
aI0
aI0
aI0
aa(lp18
I0
aI0
aI0
aI0
aa(lp19
I0
aI0
aI0
aI0
aa(lp20
I8
aI0
aI0
aI0
aa(lp21
I15
aI0
aI0
aI0
aa(lp22
I0
aI0
aI0
aI0
aa(lp23
I15
aI0
aI0
aI0
aa(lp24
I1
aI0
aI0
aI0
aa(lp25
I19
aI0
aI0
aI2
aa(lp26
I3
aI0
aI0
aI2
aa(lp27
I15
aI0
aI0
aI6
aa(lp28
I17
aI0
aI0
aI4
aa(lp29
I20
aI0
aI0
aI2
aa(lp30
I40
aI0
aI0
aI4
aa(lp31
I0
aI0
aI0
aI0
aa(lp32
I19
aI0
aI0
aI2
aa(lp33
I0
aI0
aI0
aI0
aa(lp34
I0
aI0
aI0
aI0
aa(lp35
I10
aI0
aI0
aI2
aa(lp36
I0
aI0
aI0
aI0
aa(lp37
I0
aI0
aI0
aI0
aa(lp38
I18
aI0
aI0
aI4
aa(lp39
I18
aI0
aI0
aI0
aa(lp40
I0
aI0
aI0
aI0
aa(lp41
I0
aI0
aI0
aI0
aa(lp42
I0
aI0
aI0
aI0
aa(lp43
I15
aI0
aI0
aI2
aa(lp44
I0
aI0
aI0
aI0
aa(lp45
I0
aI0
aI0
aI0
aa(lp46
I0
aI0
aI0
aI0
aa(lp47
I16
aI0
aI0
aI2
aa(lp48
I0
aI0
aI0
aI0
aa(lp49
I0
aI0
aI0
aI0
aa(lp50
I15
aI0
aI0
aI0
aa(lp51
I21
aI0
aI0
aI4
aa(lp52
I0
aI0
aI0
aI0
aa(lp53
I23
aI0
aI0
aI2
aa(lp54
I14
aI0
aI0
aI2
aa(lp55
I0
aI0
aI0
aI0
aa(lp56
I13
aI0
aI0
aI0
aa(lp57
I23
aI0
aI0
aI4
aa(lp58
I0
aI0
aI0
aI0
aa(lp59
I0
aI0
aI0
aI0
aa(lp60
I0
aI0
aI0
aI0
aa(lp61
I17
aI0
aI0
aI2
aa(lp62
I5
aI0
aI0
aI0
aa(lp63
I0
aI0
aI0
aI0
aa(lp64
I23
aI0
aI0
aI0
aa(lp65
I0
aI0
aI0
aI0
aa(lp66
I0
aI0
aI0
aI0
aa(lp67
I0
aI0
aI0
aI0
aa(lp68
I0
aI0
aI0
aI0
aa(lp69
I0
aI0
aI0
aI0
aa(lp70
I0
aI0
aI0
aI0
aa(lp71
I13
aI0
aI0
aI2
aa(lp72
I36
aI0
aI0
aI2
aa(lp73
I0
aI0
aI0
aI0
aa(lp74
I23
aI0
aI0
aI2
aa(lp75
I0
aI0
aI0
aI0
aa(lp76
I0
aI0
aI0
aI0
aa(lp77
I0
aI0
aI0
aI0
aa(lp78
I6
aI0
aI0
aI0
aa(lp79
I27
aI0
aI0
aI2
aa(lp80
I23
aI0
aI0
aI6
aa(lp81
I22
aI0
aI0
aI4
aa(lp82
I19
aI0
aI0
aI0
aa(lp83
I15
aI0
aI0
aI2
aa(lp84
I0
aI0
aI0
aI0
aa(lp85
I0
aI0
aI0
aI0
aa(lp86
I0
aI0
aI0
aI0
aa(lp87
I21
aI0
aI0
aI0
aa(lp88
I11
aI0
aI0
aI0
aa(lp89
I0
aI0
aI0
aI0
aa(lp90
I21
aI0
aI0
aI8
aa(lp91
I4
aI0
aI0
aI0
aa(lp92
I16
aI0
aI0
aI2
aa(lp93
I0
aI0
aI0
aI0
aa(lp94
I18
aI0
aI0
aI2
aa(lp95
I24
aI0
aI0
aI4
aa(lp96
I0
aI0
aI0
aI0
aa(lp97
I0
aI0
aI0
aI0
aa(lp98
I0
aI0
aI0
aI0
aa(lp99
I0
aI0
aI0
aI0
aa(lp100
I0
aI0
aI0
aI0
aa(lp101
I24
aI0
aI0
aI2
aa(lp102
I25
aI0
aI0
aI2
aa(lp103
I0
aI0
aI0
aI0
aa(lp104
I0
aI0
aI0
aI0
aa(lp105
I15
aI0
aI0
aI2
aa(lp106
I18
aI0
aI0
aI0
aa(lp107
I0
aI0
aI0
aI0
aa(lp108
I0
aI0
aI0
aI0
aa(lp109
I0
aI0
aI0
aI0
aa(lp110
I30
aI0
aI0
aI2
aa(lp111
I19
aI0
aI0
aI0
aa(lp112
I23
aI0
aI0
aI2
aa(lp113
I1
aI0
aI0
aI0
aa(lp114
I0
aI0
aI0
aI0
aa(lp115
I33
aI0
aI0
aI6
aa(lp116
I0
aI0
aI0
aI0
aa(lp117
I0
aI0
aI0
aI0
aa(lp118
I0
aI0
aI0
aI0
aa(lp119
I12
aI0
aI0
aI2
aa(lp120
I0
aI0
aI0
aI0
aa(lp121
I12
aI0
aI0
aI2
aa(lp122
I18
aI0
aI0
aI4
aa(lp123
I5
aI0
aI0
aI0
aa(lp124
I12
aI0
aI0
aI0
aa(lp125
I1
aI0
aI0
aI0
aa(lp126
I12
aI0
aI0
aI0
aa(lp127
I0
aI0
aI0
aI0
aa(lp128
I0
aI0
aI0
aI0
aa(lp129
I0
aI0
aI0
aI0
aa(lp130
I0
aI0
aI0
aI0
aa(lp131
I16
aI0
aI0
aI6
aa(lp132
I0
aI0
aI0
aI0
aa(lp133
I13
aI0
aI0
aI0
aa(lp134
I1
aI0
aI0
aI0
aa(lp135
I8
aI0
aI0
aI0
aa(lp136
I25
aI0
aI0
aI0
aa(lp137
I0
aI0
aI0
aI0
aa(lp138
I18
aI0
aI0
aI0
aa(lp139
I28
aI0
aI0
aI2
aa(lp140
I20
aI0
aI0
aI2
aa(lp141
I0
aI0
aI0
aI0
aa(lp142
I19
aI0
aI0
aI4
aa.