(lp1
(lp2
I8
aI0
aI0
aI6
aa(lp3
I7
aI0
aI0
aI2
aa(lp4
I17
aI0
aI0
aI6
aa(lp5
I6
aI0
aI0
aI0
aa(lp6
I13
aI0
aI0
aI4
aa(lp7
I11
aI0
aI0
aI4
aa(lp8
I16
aI0
aI0
aI3
aa(lp9
I9
aI0
aI0
aI4
aa(lp10
I8
aI0
aI0
aI6
aa(lp11
I9
aI0
aI0
aI12
aa(lp12
I14
aI0
aI0
aI1
aa(lp13
I2
aI0
aI0
aI0
aa(lp14
I11
aI0
aI0
aI2
aa(lp15
I21
aI0
aI0
aI13
aa(lp16
I5
aI0
aI0
aI6
aa(lp17
I5
aI0
aI0
aI2
aa(lp18
I8
aI0
aI0
aI3
aa(lp19
I1
aI0
aI0
aI0
aa(lp20
I14
aI0
aI0
aI16
aa(lp21
I13
aI0
aI0
aI2
aa(lp22
I8
aI0
aI0
aI2
aa(lp23
I17
aI0
aI0
aI11
aa(lp24
I13
aI0
aI0
aI3
aa(lp25
I3
aI0
aI0
aI2
aa(lp26
I9
aI0
aI0
aI2
aa(lp27
I9
aI0
aI0
aI9
aa(lp28
I10
aI0
aI0
aI13
aa(lp29
I18
aI0
aI0
aI11
aa(lp30
I8
aI0
aI0
aI1
aa(lp31
I8
aI0
aI0
aI5
aa(lp32
I18
aI0
aI0
aI14
aa(lp33
I13
aI0
aI0
aI6
aa(lp34
I11
aI0
aI0
aI0
aa(lp35
I22
aI0
aI0
aI5
aa(lp36
I16
aI0
aI0
aI10
aa(lp37
I11
aI0
aI0
aI5
aa(lp38
I13
aI0
aI0
aI2
aa(lp39
I10
aI0
aI0
aI4
aa(lp40
I7
aI0
aI0
aI2
aa(lp41
I11
aI0
aI0
aI5
aa(lp42
I9
aI0
aI0
aI4
aa(lp43
I8
aI0
aI0
aI6
aa(lp44
I16
aI0
aI0
aI28
aa(lp45
I16
aI0
aI0
aI5
aa(lp46
I13
aI0
aI0
aI2
aa(lp47
I7
aI0
aI0
aI6
aa(lp48
I10
aI0
aI0
aI2
aa(lp49
I0
aI0
aI0
aI0
aa(lp50
I13
aI0
aI0
aI6
aa(lp51
I16
aI0
aI0
aI9
aa(lp52
I22
aI0
aI0
aI11
aa(lp53
I9
aI0
aI0
aI1
aa(lp54
I11
aI0
aI0
aI16
aa(lp55
I3
aI0
aI0
aI0
aa(lp56
I8
aI0
aI0
aI2
aa(lp57
I8
aI0
aI0
aI0
aa(lp58
I5
aI0
aI0
aI6
aa(lp59
I12
aI0
aI0
aI14
aa(lp60
I4
aI0
aI0
aI2
aa(lp61
I16
aI0
aI0
aI1
aa(lp62
I11
aI0
aI0
aI12
aa(lp63
I8
aI0
aI0
aI6
aa(lp64
I0
aI0
aI0
aI0
aa(lp65
I16
aI0
aI0
aI6
aa(lp66
I14
aI0
aI0
aI11
aa(lp67
I9
aI0
aI0
aI0
aa(lp68
I7
aI0
aI0
aI2
aa(lp69
I0
aI0
aI0
aI0
aa(lp70
I17
aI0
aI0
aI14
aa(lp71
I0
aI0
aI0
aI0
aa(lp72
I11
aI0
aI0
aI8
aa(lp73
I7
aI0
aI0
aI0
aa(lp74
I11
aI0
aI0
aI7
aa(lp75
I16
aI0
aI0
aI6
aa(lp76
I13
aI0
aI0
aI5
aa(lp77
I11
aI0
aI0
aI4
aa(lp78
I5
aI0
aI0
aI2
aa(lp79
I8
aI0
aI0
aI2
aa(lp80
I13
aI0
aI0
aI6
aa(lp81
I17
aI0
aI0
aI1
aa(lp82
I7
aI0
aI0
aI2
aa(lp83
I7
aI0
aI0
aI0
aa(lp84
I12
aI0
aI0
aI0
aa(lp85
I12
aI0
aI0
aI4
aa(lp86
I9
aI0
aI0
aI6
aa(lp87
I6
aI0
aI0
aI2
aa(lp88
I10
aI0
aI0
aI12
aa(lp89
I12
aI0
aI0
aI2
aa(lp90
I3
aI0
aI0
aI0
aa(lp91
I4
aI0
aI0
aI2
aa(lp92
I16
aI0
aI0
aI14
aa(lp93
I14
aI0
aI0
aI2
aa(lp94
I7
aI0
aI0
aI3
aa(lp95
I7
aI0
aI0
aI6
aa(lp96
I16
aI0
aI0
aI4
aa(lp97
I17
aI0
aI0
aI0
aa(lp98
I13
aI0
aI0
aI8
aa(lp99
I12
aI0
aI0
aI12
aa(lp100
I0
aI0
aI0
aI0
aa(lp101
I5
aI0
aI0
aI0
aa(lp102
I10
aI0
aI0
aI2
aa(lp103
I3
aI0
aI0
aI6
aa(lp104
I6
aI0
aI0
aI0
aa(lp105
I8
aI0
aI0
aI6
aa(lp106
I16
aI0
aI0
aI8
aa(lp107
I1
aI0
aI0
aI0
aa(lp108
I14
aI0
aI0
aI2
aa(lp109
I7
aI0
aI0
aI2
aa(lp110
I9
aI0
aI0
aI0
aa.